; Function Attrs: nounwind uwtable
define internal fastcc ptr @addid(ptr noundef %0, ptr noundef readonly captures(none) %1) unnamed_addr #0 {
  %3 = tail call noalias dereferenceable_or_null(24) ptr @calloc(i64 noundef 1, i64 noundef range(i64 1, 33) 24) #22
  %4 = icmp eq ptr %3, null
  br i1 %4, label %5, label %gv_alloc.exit

5:                                                ; preds = %2
  %6 = load ptr, ptr @stderr, align 8, !tbaa !39
  %7 = tail call i32 (ptr, ptr, ...) @fprintf(ptr noundef %6, ptr noundef nonnull @.str.6, i64 noundef 24) #23
  tail call fastcc void @graphviz_exit() #24
  unreachable

gv_alloc.exit:                                    ; preds = %2
  %8 = tail call noalias ptr @strdup(ptr noundef readonly %1) #21
  %9 = icmp eq ptr %8, null
  br i1 %9, label %10, label %gv_strdup.exit

10:                                               ; preds = %gv_alloc.exit
  %11 = load ptr, ptr @stderr, align 8, !tbaa !39
  %12 = tail call i64 @strlen(ptr noundef nonnull readonly dereferenceable(1) %1) #25
  %13 = add i64 %12, 1
  %14 = tail call i32 (ptr, ptr, ...) @fprintf(ptr noundef %11, ptr noundef nonnull @.str.6, i64 noundef %13) #23
  tail call fastcc void @graphviz_exit() #24
  unreachable

gv_strdup.exit:                                   ; preds = %gv_alloc.exit
  %15 = getelementptr inbounds nuw i8, ptr %3, i64 16
  store ptr %8, ptr %15, align 8, !tbaa !41
  %16 = load ptr, ptr %0, align 8, !tbaa !25
  %17 = tail call ptr %16(ptr noundef nonnull %0, ptr noundef nonnull %3, i32 noundef 1) #21
  %18 = load ptr, ptr %15, align 8, !tbaa !41
  ret ptr %18
}